target datalayout = "e-m:e-p270:32:32-p271:32:32-p272:64:64-i64:64-i128:128-f80:128-n8:16:32:64-S128"
target triple = "x86_64-pc-linux-gnu"

; Function Attrs: nounwind uwtable
define i32 @Gia_Sim2CompareEqual(ptr noundef %0, ptr noundef %1, i32 noundef %2, i32 noundef %3) #0 {
  %5 = alloca i32, align 4
  %6 = alloca ptr, align 8
  %7 = alloca ptr, align 8
  %8 = alloca i32, align 4
  %9 = alloca i32, align 4
  %10 = alloca i32, align 4
  %11 = alloca i32, align 4
  store ptr %0, ptr %6, align 8, !tbaa !59
  store ptr %1, ptr %7, align 8, !tbaa !59
  store i32 %2, ptr %8, align 4, !tbaa !30
  store i32 %3, ptr %9, align 4, !tbaa !30
  call void @llvm.lifetime.start.p0(i64 4, ptr %10) #11
  %12 = load i32, ptr %9, align 4, !tbaa !30
  %13 = icmp ne i32 %12, 0
  br i1 %13, label %37, label %14

14:                                               ; preds = %4
  store i32 0, ptr %10, align 4, !tbaa !30
  br label %15

15:                                               ; preds = %33, %14
  %16 = load i32, ptr %10, align 4, !tbaa !30
  %17 = load i32, ptr %8, align 4, !tbaa !30
  %18 = icmp slt i32 %16, %17
  br i1 %18, label %19, label %36

19:                                               ; preds = %15
  %20 = load ptr, ptr %6, align 8, !tbaa !59
  %21 = load i32, ptr %10, align 4, !tbaa !30
  %22 = sext i32 %21 to i64
  %23 = getelementptr inbounds i32, ptr %20, i64 %22
  %24 = load i32, ptr %23, align 4, !tbaa !30
  %25 = load ptr, ptr %7, align 8, !tbaa !59
  %26 = load i32, ptr %10, align 4, !tbaa !30
  %27 = sext i32 %26 to i64
  %28 = getelementptr inbounds i32, ptr %25, i64 %27
  %29 = load i32, ptr %28, align 4, !tbaa !30
  %30 = icmp ne i32 %24, %29
  br i1 %30, label %31, label %32

31:                                               ; preds = %19
  store i32 0, ptr %5, align 4
  store i32 1, ptr %11, align 4
  br label %61

32:                                               ; preds = %19
  br label %33

33:                                               ; preds = %32
  %34 = load i32, ptr %10, align 4, !tbaa !30
  %35 = add nsw i32 %34, 1
  store i32 %35, ptr %10, align 4, !tbaa !30
  br label %15, !llvm.loop !60

36:                                               ; preds = %15
  store i32 1, ptr %5, align 4
  store i32 1, ptr %11, align 4
  br label %61

37:                                               ; preds = %4
  store i32 0, ptr %10, align 4, !tbaa !30
  br label %38

38:                                               ; preds = %57, %37
  %39 = load i32, ptr %10, align 4, !tbaa !30
  %40 = load i32, ptr %8, align 4, !tbaa !30
  %41 = icmp slt i32 %39, %40
  br i1 %41, label %42, label %60

42:                                               ; preds = %38
  %43 = load ptr, ptr %6, align 8, !tbaa !59
  %44 = load i32, ptr %10, align 4, !tbaa !30
  %45 = sext i32 %44 to i64
  %46 = getelementptr inbounds i32, ptr %43, i64 %45
  %47 = load i32, ptr %46, align 4, !tbaa !30
  %48 = load ptr, ptr %7, align 8, !tbaa !59
  %49 = load i32, ptr %10, align 4, !tbaa !30
  %50 = sext i32 %49 to i64
  %51 = getelementptr inbounds i32, ptr %48, i64 %50
  %52 = load i32, ptr %51, align 4, !tbaa !30
  %53 = xor i32 %52, -1
  %54 = icmp ne i32 %47, %53
  br i1 %54, label %55, label %56

55:                                               ; preds = %42
  store i32 0, ptr %5, align 4
  store i32 1, ptr %11, align 4
  br label %61

56:                                               ; preds = %42
  br label %57

57:                                               ; preds = %56
  %58 = load i32, ptr %10, align 4, !tbaa !30
  %59 = add nsw i32 %58, 1
  store i32 %59, ptr %10, align 4, !tbaa !30
  br label %38, !llvm.loop !61

60:                                               ; preds = %38
  store i32 1, ptr %5, align 4
  store i32 1, ptr %11, align 4
  br label %61

61:                                               ; preds = %60, %55, %36, %31
  call void @llvm.lifetime.end.p0(i64 4, ptr %10) #11
  %62 = load i32, ptr %5, align 4
  ret i32 %62
}