; Function Attrs: nofree norecurse nosync nounwind memory(argmem: read) uwtable
define range(i32 0, 2) i32 @Gia_Sim2CompareEqual(ptr noundef readonly captures(none) %0, ptr noundef readonly captures(none) %1, i32 noundef %2, i32 noundef %3) local_unnamed_addr #8 {
  %.not = icmp eq i32 %3, 0
  %5 = icmp sgt i32 %2, 0
  br i1 %.not, label %.preheader, label %.preheader18

.preheader18:                                     ; preds = %4
  br i1 %5, label %.lr.ph.preheader, label %.loopexit

.lr.ph.preheader:                                 ; preds = %.preheader18
  %wide.trip.count = zext nneg i32 %2 to i64
  br label %.lr.ph

.preheader:                                       ; preds = %4
  br i1 %5, label %.lr.ph25.preheader, label %.loopexit

.lr.ph25.preheader:                               ; preds = %.preheader
  %wide.trip.count35 = zext nneg i32 %2 to i64
  br label %.lr.ph25

6:                                                ; preds = %.lr.ph25
  %indvars.iv.next33 = add nuw nsw i64 %indvars.iv32, 1
  %exitcond36.not = icmp eq i64 %indvars.iv.next33, %wide.trip.count35
  br i1 %exitcond36.not, label %.loopexit, label %.lr.ph25, !llvm.loop !54

.lr.ph25:                                         ; preds = %.lr.ph25.preheader, %6
  %indvars.iv32 = phi i64 [ 0, %.lr.ph25.preheader ], [ %indvars.iv.next33, %6 ]
  %7 = getelementptr inbounds nuw i32, ptr %0, i64 %indvars.iv32
  %8 = load i32, ptr %7, align 4, !tbaa !48
  %9 = getelementptr inbounds nuw i32, ptr %1, i64 %indvars.iv32
  %10 = load i32, ptr %9, align 4, !tbaa !48
  %.not16 = icmp eq i32 %8, %10
  br i1 %.not16, label %6, label %.loopexit

11:                                               ; preds = %.lr.ph
  %indvars.iv.next = add nuw nsw i64 %indvars.iv, 1
  %exitcond.not = icmp eq i64 %indvars.iv.next, %wide.trip.count
  br i1 %exitcond.not, label %.loopexit, label %.lr.ph, !llvm.loop !55

.lr.ph:                                           ; preds = %.lr.ph.preheader, %11
  %indvars.iv = phi i64 [ 0, %.lr.ph.preheader ], [ %indvars.iv.next, %11 ]
  %12 = getelementptr inbounds nuw i32, ptr %0, i64 %indvars.iv
  %13 = load i32, ptr %12, align 4, !tbaa !48
  %14 = getelementptr inbounds nuw i32, ptr %1, i64 %indvars.iv
  %15 = load i32, ptr %14, align 4, !tbaa !48
  %16 = xor i32 %15, %13
  %.not17 = icmp eq i32 %16, -1
  br i1 %.not17, label %11, label %.loopexit

.loopexit:                                        ; preds = %.lr.ph, %11, %.lr.ph25, %6, %.preheader18, %.preheader
  %.015 = phi i32 [ 1, %.preheader ], [ 1, %.preheader18 ], [ 0, %.lr.ph25 ], [ 1, %6 ], [ 0, %.lr.ph ], [ 1, %11 ]
  ret i32 %.015
}